target datalayout = "e-m:e-p270:32:32-p271:32:32-p272:64:64-i64:64-i128:128-f80:128-n8:16:32:64-S128"
target triple = "x86_64-pc-linux-gnu"

%"class.std::vector" = type { %"struct.std::_Vector_base" }
%"struct.std::_Vector_base" = type { %"struct.std::_Vector_base<std::__cxx11::basic_string<char>, std::allocator<std::__cxx11::basic_string<char>>>::_Vector_impl" }
%"struct.std::_Vector_base<std::__cxx11::basic_string<char>, std::allocator<std::__cxx11::basic_string<char>>>::_Vector_impl" = type { %"struct.std::_Vector_base<std::__cxx11::basic_string<char>, std::allocator<std::__cxx11::basic_string<char>>>::_Vector_impl_data" }
%"struct.std::_Vector_base<std::__cxx11::basic_string<char>, std::allocator<std::__cxx11::basic_string<char>>>::_Vector_impl_data" = type { ptr, ptr, ptr }
%"class.std::__cxx11::basic_string" = type { %"struct.std::__cxx11::basic_string<char>::_Alloc_hider", i64, %union.anon }
%"struct.std::__cxx11::basic_string<char>::_Alloc_hider" = type { ptr }
%union.anon = type { i64, [8 x i8] }
%"class.casadi::SharedObject" = type { %"class.casadi::GenericShared" }
%"class.casadi::GenericShared" = type { ptr }
%"struct.std::_Rb_tree_header" = type { %"struct.std::_Rb_tree_node_base", i64 }
%"struct.std::_Rb_tree_node_base" = type { i32, ptr, ptr, ptr }
%"class.casadi::DaeBuilderInternal" = type <{ %"class.casadi::SharedObjectInternal", i8, [7 x i8], double, i8, [7 x i8], %"class.std::__cxx11::basic_string", %"class.std::__cxx11::basic_string", %"class.std::__cxx11::basic_string", %"class.std::__cxx11::basic_string", %"class.std::__cxx11::basic_string", %"class.std::__cxx11::basic_string", %"class.std::__cxx11::basic_string", %"class.std::__cxx11::basic_string", %"class.std::__cxx11::basic_string", %"class.std::__cxx11::basic_string", i64, double, double, double, double, %"class.std::__cxx11::basic_string", i8, i8, i8, [5 x i8], %"class.std::vector", %"class.std::__cxx11::basic_string", %"class.std::__cxx11::basic_string", i8, [7 x i8], i64, %"class.std::vector.28", %"class.std::vector.33", %"class.std::vector.33", %"class.std::vector.33", %"class.std::unordered_map", %"class.std::unordered_map.43", %"class.std::vector.63", %"class.std::vector.33", %"class.std::vector.68", %"class.std::vector.68", %"class.std::vector.68", %"class.std::map.73", %"class.std::vector.78", [2 x [2 x [2 x %"class.casadi::Function"]]], i8, [7 x i8] }>
%"class.casadi::SharedObjectInternal" = type { %"class.casadi::GenericSharedInternal", i64 }
%"class.casadi::GenericSharedInternal" = type { ptr, ptr }
%"class.std::vector.28" = type { %"struct.std::_Vector_base.29" }
%"struct.std::_Vector_base.29" = type { %"struct.std::_Vector_base<casadi::Variable *, std::allocator<casadi::Variable *>>::_Vector_impl" }
%"struct.std::_Vector_base<casadi::Variable *, std::allocator<casadi::Variable *>>::_Vector_impl" = type { %"struct.std::_Vector_base<casadi::Variable *, std::allocator<casadi::Variable *>>::_Vector_impl_data" }
%"struct.std::_Vector_base<casadi::Variable *, std::allocator<casadi::Variable *>>::_Vector_impl_data" = type { ptr, ptr, ptr }
%"class.std::unordered_map" = type { %"class.std::_Hashtable" }
%"class.std::_Hashtable" = type { ptr, i64, %"struct.std::__detail::_Hash_node_base", i64, %"struct.std::__detail::_Prime_rehash_policy", ptr }
%"struct.std::__detail::_Hash_node_base" = type { ptr }
%"struct.std::__detail::_Prime_rehash_policy" = type { float, i64 }
%"class.std::unordered_map.43" = type { %"class.std::_Hashtable.44" }
%"class.std::_Hashtable.44" = type { ptr, i64, %"struct.std::__detail::_Hash_node_base", i64, %"struct.std::__detail::_Prime_rehash_policy", ptr }
%"class.std::vector.63" = type { %"struct.std::_Vector_base.64" }
%"struct.std::_Vector_base.64" = type { %"struct.std::_Vector_base<std::vector<unsigned long>, std::allocator<std::vector<unsigned long>>>::_Vector_impl" }
%"struct.std::_Vector_base<std::vector<unsigned long>, std::allocator<std::vector<unsigned long>>>::_Vector_impl" = type { %"struct.std::_Vector_base<std::vector<unsigned long>, std::allocator<std::vector<unsigned long>>>::_Vector_impl_data" }
%"struct.std::_Vector_base<std::vector<unsigned long>, std::allocator<std::vector<unsigned long>>>::_Vector_impl_data" = type { ptr, ptr, ptr }
%"class.std::vector.33" = type { %"struct.std::_Vector_base.34" }
%"struct.std::_Vector_base.34" = type { %"struct.std::_Vector_base<unsigned long, std::allocator<unsigned long>>::_Vector_impl" }
%"struct.std::_Vector_base<unsigned long, std::allocator<unsigned long>>::_Vector_impl" = type { %"struct.std::_Vector_base<unsigned long, std::allocator<unsigned long>>::_Vector_impl_data" }
%"struct.std::_Vector_base<unsigned long, std::allocator<unsigned long>>::_Vector_impl_data" = type { ptr, ptr, ptr }
%"class.std::vector.68" = type { %"struct.std::_Vector_base.69" }
%"struct.std::_Vector_base.69" = type { %"struct.std::_Vector_base<casadi::MX, std::allocator<casadi::MX>>::_Vector_impl" }
%"struct.std::_Vector_base<casadi::MX, std::allocator<casadi::MX>>::_Vector_impl" = type { %"struct.std::_Vector_base<casadi::MX, std::allocator<casadi::MX>>::_Vector_impl_data" }
%"struct.std::_Vector_base<casadi::MX, std::allocator<casadi::MX>>::_Vector_impl_data" = type { ptr, ptr, ptr }
%"class.std::map.73" = type { %"class.std::_Rb_tree.74" }
%"class.std::_Rb_tree.74" = type { %"struct.std::_Rb_tree<std::__cxx11::basic_string<char>, std::pair<const std::__cxx11::basic_string<char>, std::vector<std::__cxx11::basic_string<char>>>, std::_Select1st<std::pair<const std::__cxx11::basic_string<char>, std::vector<std::__cxx11::basic_string<char>>>>, std::less<std::__cxx11::basic_string<char>>>::_Rb_tree_impl" }
%"struct.std::_Rb_tree<std::__cxx11::basic_string<char>, std::pair<const std::__cxx11::basic_string<char>, std::vector<std::__cxx11::basic_string<char>>>, std::_Select1st<std::pair<const std::__cxx11::basic_string<char>, std::vector<std::__cxx11::basic_string<char>>>>, std::less<std::__cxx11::basic_string<char>>>::_Rb_tree_impl" = type { [8 x i8], %"struct.std::_Rb_tree_header" }
%"class.std::vector.78" = type { %"struct.std::_Vector_base.79" }
%"struct.std::_Vector_base.79" = type { %"struct.std::_Vector_base<casadi::Function, std::allocator<casadi::Function>>::_Vector_impl" }
%"struct.std::_Vector_base<casadi::Function, std::allocator<casadi::Function>>::_Vector_impl" = type { %"struct.std::_Vector_base<casadi::Function, std::allocator<casadi::Function>>::_Vector_impl_data" }
%"struct.std::_Vector_base<casadi::Function, std::allocator<casadi::Function>>::_Vector_impl_data" = type { ptr, ptr, ptr }
%"class.casadi::Function" = type { %"class.casadi::SharedObject" }

@.str.690 = private unnamed_addr constant [74 x i8] c"vector::_M_range_check: __n (which is %zu) >= this->size() (which is %zu)\00", align 1

; Function Attrs: mustprogress nounwind uwtable
define linkonce_odr hidden noundef i64 @_ZNKSt6vectorIPN6casadi8VariableESaIS2_EE4sizeEv(ptr noundef nonnull align 8 dereferenceable(24) %0) #5 comdat align 2 {
  %2 = alloca ptr, align 8
  store ptr %0, ptr %2, align 8, !tbaa !135
  %3 = load ptr, ptr %2, align 8
  %4 = getelementptr inbounds nuw %"struct.std::_Vector_base.29", ptr %3, i32 0, i32 0
  %5 = getelementptr inbounds nuw %"struct.std::_Vector_base<casadi::Variable *, std::allocator<casadi::Variable *>>::_Vector_impl_data", ptr %4, i32 0, i32 1
  %6 = load ptr, ptr %5, align 8, !tbaa !173
  %7 = getelementptr inbounds nuw %"struct.std::_Vector_base.29", ptr %3, i32 0, i32 0
  %8 = getelementptr inbounds nuw %"struct.std::_Vector_base<casadi::Variable *, std::allocator<casadi::Variable *>>::_Vector_impl_data", ptr %7, i32 0, i32 0
  %9 = load ptr, ptr %8, align 8, !tbaa !171
  %10 = ptrtoint ptr %6 to i64
  %11 = ptrtoint ptr %9 to i64
  %12 = sub i64 %10, %11
  %13 = sdiv exact i64 %12, 8
  ret i64 %13
}

; Function Attrs: mustprogress nounwind uwtable
define linkonce_odr hidden noundef nonnull align 8 dereferenceable(8) ptr @_ZNSt6vectorIPN6casadi8VariableESaIS2_EEixEm(ptr noundef nonnull align 8 dereferenceable(24) %0, i64 noundef %1) #5 comdat align 2 {
  %3 = alloca ptr, align 8
  %4 = alloca i64, align 8
  store ptr %0, ptr %3, align 8, !tbaa !135
  store i64 %1, ptr %4, align 8, !tbaa !31
  %5 = load ptr, ptr %3, align 8
  %6 = getelementptr inbounds nuw %"struct.std::_Vector_base.29", ptr %5, i32 0, i32 0
  %7 = getelementptr inbounds nuw %"struct.std::_Vector_base<casadi::Variable *, std::allocator<casadi::Variable *>>::_Vector_impl_data", ptr %6, i32 0, i32 0
  %8 = load ptr, ptr %7, align 8, !tbaa !171
  %9 = load i64, ptr %4, align 8, !tbaa !31
  %10 = getelementptr inbounds nuw ptr, ptr %8, i64 %9
  ret ptr %10
}

; Function Attrs: mustprogress uwtable
define linkonce_odr hidden void @_ZNKSt6vectorIPN6casadi8VariableESaIS2_EE14_M_range_checkEm(ptr noundef nonnull align 8 dereferenceable(24) %0, i64 noundef %1) #6 comdat align 2 {
  %3 = alloca ptr, align 8
  %4 = alloca i64, align 8
  store ptr %0, ptr %3, align 8, !tbaa !135
  store i64 %1, ptr %4, align 8, !tbaa !31
  %5 = load ptr, ptr %3, align 8
  %6 = load i64, ptr %4, align 8, !tbaa !31
  %7 = call noundef i64 @_ZNKSt6vectorIPN6casadi8VariableESaIS2_EE4sizeEv(ptr noundef nonnull align 8 dereferenceable(24) %5) #3
  %8 = icmp uge i64 %6, %7
  br i1 %8, label %9, label %12

9:                                                ; preds = %2
  %10 = load i64, ptr %4, align 8, !tbaa !31
  %11 = call noundef i64 @_ZNKSt6vectorIPN6casadi8VariableESaIS2_EE4sizeEv(ptr noundef nonnull align 8 dereferenceable(24) %5) #3
  call void (ptr, ...) @_ZSt24__throw_out_of_range_fmtPKcz(ptr noundef @.str.690, i64 noundef %10, i64 noundef %11) #22
  unreachable

12:                                               ; preds = %2
  ret void
}

; Function Attrs: mustprogress uwtable
define linkonce_odr hidden noundef nonnull align 8 dereferenceable(8) ptr @_ZNSt6vectorIPN6casadi8VariableESaIS2_EE2atEm(ptr noundef nonnull align 8 dereferenceable(24) %0, i64 noundef %1) #6 comdat align 2 {
  %3 = alloca ptr, align 8
  %4 = alloca i64, align 8
  store ptr %0, ptr %3, align 8, !tbaa !135
  store i64 %1, ptr %4, align 8, !tbaa !31
  %5 = load ptr, ptr %3, align 8
  %6 = load i64, ptr %4, align 8, !tbaa !31
  call void @_ZNKSt6vectorIPN6casadi8VariableESaIS2_EE14_M_range_checkEm(ptr noundef nonnull align 8 dereferenceable(24) %5, i64 noundef %6)
  %7 = load i64, ptr %4, align 8, !tbaa !31
  %8 = call noundef nonnull align 8 dereferenceable(8) ptr @_ZNSt6vectorIPN6casadi8VariableESaIS2_EEixEm(ptr noundef nonnull align 8 dereferenceable(24) %5, i64 noundef %7) #3
  ret ptr %8
}

; Function Attrs: mustprogress uwtable
define linkonce_odr hidden noundef nonnull align 8 dereferenceable(408) ptr @_ZN6casadi18DaeBuilderInternal8variableEm(ptr noundef nonnull align 8 dereferenceable(1017) %0, i64 noundef %1) #6 comdat align 2 {
  %3 = alloca ptr, align 8
  %4 = alloca i64, align 8
  store ptr %0, ptr %3, align 8, !tbaa !112
  store i64 %1, ptr %4, align 8, !tbaa !31
  %5 = load ptr, ptr %3, align 8
  %6 = getelementptr inbounds nuw %"class.casadi::DaeBuilderInternal", ptr %5, i32 0, i32 32
  %7 = load i64, ptr %4, align 8, !tbaa !31
  %8 = call noundef nonnull align 8 dereferenceable(8) ptr @_ZNSt6vectorIPN6casadi8VariableESaIS2_EE2atEm(ptr noundef nonnull align 8 dereferenceable(24) %6, i64 noundef %7)
  %9 = load ptr, ptr %8, align 8, !tbaa !48
  ret ptr %9
}

; Function Attrs: mustprogress uwtable
define linkonce_odr hidden noundef nonnull align 8 dereferenceable(408) ptr @_ZN6casadi18DaeBuilderInternal8variableERKNSt7__cxx1112basic_stringIcSt11char_traitsIcESaIcEEE(ptr noundef nonnull align 8 dereferenceable(1017) %0, ptr noundef nonnull align 8 dereferenceable(32) %1) #6 comdat align 2 {
  %3 = alloca ptr, align 8
  %4 = alloca ptr, align 8
  store ptr %0, ptr %3, align 8, !tbaa !112
  store ptr %1, ptr %4, align 8, !tbaa !13
  %5 = load ptr, ptr %3, align 8
  %6 = load ptr, ptr %4, align 8, !tbaa !13
  %7 = call noundef i64 @_ZNK6casadi18DaeBuilderInternal4findERKNSt7__cxx1112basic_stringIcSt11char_traitsIcESaIcEEE(ptr noundef nonnull align 8 dereferenceable(1017) %5, ptr noundef nonnull align 8 dereferenceable(32) %6)
  %8 = call noundef nonnull align 8 dereferenceable(408) ptr @_ZN6casadi18DaeBuilderInternal8variableEm(ptr noundef nonnull align 8 dereferenceable(1017) %5, i64 noundef %7)
  ret ptr %8
}

; Function Attrs: mustprogress uwtable
define void @_ZN6casadi18DaeBuilderInternal13set_attributeENS_9AttributeERKNSt7__cxx1112basic_stringIcSt11char_traitsIcESaIcEEEd(ptr noundef nonnull align 8 dereferenceable(1017) %0, i32 noundef %1, ptr noundef nonnull align 8 dereferenceable(32) %2, double noundef %3) #6 align 2 {
  %5 = alloca ptr, align 8
  %6 = alloca i32, align 4
  %7 = alloca ptr, align 8
  %8 = alloca double, align 8
  store ptr %0, ptr %5, align 8, !tbaa !112
  store i32 %1, ptr %6, align 4, !tbaa !42
  store ptr %2, ptr %7, align 8, !tbaa !13
  store double %3, ptr %8, align 8, !tbaa !77
  %9 = load ptr, ptr %5, align 8
  %10 = load ptr, ptr %7, align 8, !tbaa !13
  %11 = call noundef nonnull align 8 dereferenceable(408) ptr @_ZN6casadi18DaeBuilderInternal8variableERKNSt7__cxx1112basic_stringIcSt11char_traitsIcESaIcEEE(ptr noundef nonnull align 8 dereferenceable(1017) %9, ptr noundef nonnull align 8 dereferenceable(32) %10)
  %12 = load i32, ptr %6, align 4, !tbaa !42
  %13 = load double, ptr %8, align 8, !tbaa !77
  call void @_ZN6casadi8Variable13set_attributeENS_9AttributeEd(ptr noundef nonnull align 8 dereferenceable(408) %11, i32 noundef %12, double noundef %13)
  ret void
}